target datalayout = "e-m:e-p270:32:32-p271:32:32-p272:64:64-i64:64-i128:128-f80:128-n8:16:32:64-S128"
target triple = "x86_64-pc-linux-gnu"

%class.ExpressionAssign = type { %class.Expression, ptr }
%class.Expression = type { ptr, i32, i32, ptr }

@_ZN16ExpressionAssignC1EPK15StatementAssign = dso_local unnamed_addr alias void (ptr, ptr), ptr @_ZN16ExpressionAssignC2EPK15StatementAssign

; Function Attrs: mustprogress uwtable
define dso_local noundef ptr @_ZNK16ExpressionAssign5cloneEv(ptr noundef nonnull align 8 dereferenceable(32) %0) unnamed_addr #4 align 2 personality ptr @__gxx_personality_v0 {
  %2 = alloca ptr, align 8
  %3 = alloca ptr, align 8
  %4 = alloca i32, align 4
  store ptr %0, ptr %2, align 8
  %5 = load ptr, ptr %2, align 8
  %6 = call noalias noundef nonnull ptr @_Znwm(i64 noundef 32) #12
  %7 = getelementptr inbounds %class.ExpressionAssign, ptr %5, i32 0, i32 1
  %8 = load ptr, ptr %7, align 8
  invoke void @_ZN16ExpressionAssignC1EPK15StatementAssign(ptr noundef nonnull align 8 dereferenceable(32) %6, ptr noundef %8)
          to label %9 unwind label %10

9:                                                ; preds = %1
  ret ptr %6

10:                                               ; preds = %1
  %11 = landingpad { ptr, i32 }
          cleanup
  %12 = extractvalue { ptr, i32 } %11, 0
  store ptr %12, ptr %3, align 8
  %13 = extractvalue { ptr, i32 } %11, 1
  store i32 %13, ptr %4, align 4
  call void @_ZdlPv(ptr noundef %6) #13
  br label %14

14:                                               ; preds = %10
  %15 = load ptr, ptr %3, align 8
  %16 = load i32, ptr %4, align 4
  %17 = insertvalue { ptr, i32 } poison, ptr %15, 0
  %18 = insertvalue { ptr, i32 } %17, i32 %16, 1
  resume { ptr, i32 } %18
}