; Function Attrs: mustprogress uwtable
define dso_local noundef nonnull ptr @_ZNK16ExpressionAssign5cloneEv(ptr nocapture noundef nonnull readonly align 8 dereferenceable(32) %0) unnamed_addr #3 align 2 personality ptr @__gxx_personality_v0 {
  %2 = tail call noalias noundef nonnull dereferenceable(32) ptr @_Znwm(i64 noundef 32) #13
  %3 = getelementptr inbounds i8, ptr %0, i64 24
  %4 = load ptr, ptr %3, align 8
  invoke void @_ZN10ExpressionC2E9eTermType(ptr noundef nonnull align 8 dereferenceable(24) %2, i32 noundef 3)
          to label %5 unwind label %7

5:                                                ; preds = %1
  store ptr getelementptr inbounds ({ [24 x ptr] }, ptr @_ZTV16ExpressionAssign, i64 0, i32 0, i64 2), ptr %2, align 8
  %6 = getelementptr inbounds i8, ptr %2, i64 24
  store ptr %4, ptr %6, align 8
  ret ptr %2

7:                                                ; preds = %1
  %8 = landingpad { ptr, i32 }
          cleanup
  tail call void @_ZdlPv(ptr noundef nonnull %2) #14
  resume { ptr, i32 } %8
}